Certificate:
    Data:
        Version: 3 (0x2)
        Serial Number: 9622 (0x2596)
    Signature Algorithm: sha512WithRSAEncryption
        Issuer: C=US, ST=California, O=drfcx, OU=vpn, CN=vpn.drfcx.com/emailAddress=vpn@drfcx.com
        Validity
            Not Before: Jul 30 04:18:52 2017 GMT
            Not After : Sep  3 04:18:52 2018 GMT
        Subject: C=US, ST=California, O=drfcx, OU=vpn, CN=router/emailAddress=router@drfcx.com
        Subject Public Key Info:
            Public Key Algorithm: rsaEncryption
                Public-Key: (4096 bit)
                Modulus:
                    00:d1:ff:82:f0:02:8f:e8:25:95:33:9e:77:2b:0c:
                    ce:6c:8f:2d:a6:5f:65:6f:8e:80:17:e4:6b:0f:28:
                    02:a8:d4:19:1e:3e:b3:91:5e:6e:7d:08:26:42:6e:
                    98:8b:09:5f:f5:0a:91:d4:65:2f:66:50:09:7b:88:
                    62:2e:c7:03:12:b3:b5:7f:38:6e:83:3f:f7:24:df:
                    b9:48:5b:28:65:5f:77:c0:1b:b9:dc:3f:1a:57:6d:
                    a2:36:ca:cb:de:1c:53:46:81:9b:b1:6e:b5:da:d7:
                    8c:db:86:c1:e9:92:f2:a7:28:72:82:de:01:65:eb:
                    45:aa:45:64:4c:ad:24:20:a2:5b:7a:18:3a:5c:9b:
                    96:4b:63:f7:af:4e:94:cb:f9:e4:d0:b2:4e:7e:f5:
                    8f:d1:59:ee:6b:ee:e1:dc:60:b1:05:04:8f:d9:ca:
                    74:bf:3e:56:54:95:37:81:73:71:69:0f:67:f7:7b:
                    cd:30:eb:e0:3b:a8:5f:00:e6:41:26:f6:21:23:57:
                    f5:08:ca:fb:6c:e2:fa:e3:c3:e8:4f:2b:87:37:b2:
                    20:21:32:02:15:37:e5:09:0c:43:8f:ff:93:e3:17:
                    10:22:2b:a1:6b:f2:39:f3:07:23:9b:c6:b8:f0:5b:
                    07:2b:d6:38:33:f7:e1:b1:53:c1:c1:f7:7e:90:6b:
                    22:57:4c:96:d1:c4:14:c2:ec:7b:95:db:a3:78:b4:
                    ae:e3:d9:c8:49:d1:0c:51:b7:ee:ee:e6:77:99:c7:
                    ce:40:d0:79:49:61:50:bc:ea:71:f0:69:d0:a9:36:
                    70:0b:8f:6a:76:6d:59:6a:93:8b:06:df:1d:8f:a6:
                    23:bc:8a:42:f3:d5:7d:53:5e:d9:f3:42:99:90:2b:
                    0f:fd:d6:88:2d:4e:7b:eb:90:09:7b:a7:69:02:f0:
                    52:5f:16:20:a2:90:0c:17:6c:9e:c8:8b:be:4b:3d:
                    7a:cf:1a:df:b4:e4:2d:7f:65:66:d3:7d:a9:0b:61:
                    0c:b9:45:23:f0:7f:a2:91:e4:03:39:15:04:9e:5f:
                    df:39:da:5d:78:05:fd:66:25:d8:58:35:2a:16:31:
                    3b:ed:53:2d:32:d5:96:c9:c9:f7:35:50:ac:7f:c0:
                    7c:d4:be:a2:0d:18:46:55:cd:6b:5d:5e:66:19:77:
                    8b:01:0d:a9:48:6f:e9:bc:b1:2e:19:c1:dc:e4:03:
                    7b:c1:8e:e2:d0:e6:45:d5:1d:42:df:69:3e:bd:36:
                    b3:66:e7:e6:21:e2:89:ae:f5:78:72:f5:96:49:77:
                    40:33:96:e0:48:e7:6e:16:64:af:12:d0:a2:85:d9:
                    61:71:9d:d3:a4:a4:a0:5b:9a:5d:84:24:14:74:1d:
                    fb:b9:0f
                Exponent: 65537 (0x10001)
        X509v3 extensions:
            X509v3 Basic Constraints: critical
                CA:FALSE
            X509v3 Key Usage: critical
                Digital Signature, Key Agreement
            X509v3 Extended Key Usage: critical
                TLS Web Client Authentication
            X509v3 Subject Key Identifier: 
                A9:A2:13:01:7F:2D:A6:18:83:85:2A:3C:8B:74:25:84:91:AD:C9:72
            X509v3 Authority Key Identifier: 
                keyid:72:BE:FA:99:A5:A8:A2:0C:BE:2C:0B:E9:B5:57:E4:1A:41:CA:F3:23

            TLS Feature: 
                status_request_v2
    Signature Algorithm: sha512WithRSAEncryption
         17:ed:ce:a7:23:ab:3f:3f:72:4a:39:11:d4:22:a9:e6:44:c5:
         29:eb:31:55:47:20:a0:88:3a:ba:0e:fa:49:c4:0b:1f:a7:dc:
         a8:af:0f:5b:fa:6e:6d:9f:97:45:27:9c:95:26:dd:53:0e:d0:
         ff:20:e0:66:8e:c9:49:2e:e2:9d:17:c6:58:43:4b:05:29:b4:
         87:62:5a:86:72:0c:93:aa:42:16:7b:87:2d:fb:20:a3:fe:a9:
         33:d1:81:c5:ce:62:72:f6:99:3d:f0:bc:6d:ce:f7:02:97:ff:
         e6:b4:30:1c:67:9b:c5:7f:05:56:f7:67:89:bf:5c:cc:b5:48:
         33:0b:47:2c:4e:8c:20:a7:10:07:7e:c6:c6:47:db:e7:32:e6:
         2a:a6:ce:71:8d:ed:d5:33:db:cb:de:b2:ce:96:ab:d7:c4:e3:
         b6:2b:50:60:da:94:51:f9:73:67:af:9c:52:d7:61:db:6d:7b:
         be:07:fe:b5:41:70:fb:6e:f7:20:64:87:20:de:d0:70:31:34:
         ee:21:8c:5b:b7:35:bf:01:dd:d6:f6:14:c0:cd:95:2d:bb:c6:
         0c:5d:ed:28:d2:7a:af:26:21:8e:93:c9:f8:ab:7e:29:16:3f:
         81:1f:95:ff:ac:2a:8b:61:cc:fe:17:0e:d3:18:07:98:7a:d0:
         db:dc:b0:4f:2c:a6:b6:b2:5d:ec:00:18:70:db:9e:70:5a:a8:
         e1:5c:32:b2:fd:fa:58:7a:24:fb:77:5b:90:1b:5b:c5:0d:af:
         f5:b9:e5:c2:d1:f7:66:c5:3c:ef:d3:af:85:09:fc:13:6f:93:
         16:31:52:fd:29:5b:39:20:0f:b3:ff:db:1a:62:b9:fb:ab:d1:
         66:ff:fb:9a:db:8e:95:ee:60:db:ee:1e:98:93:bb:cc:44:f5:
         36:36:99:54:7c:06:01:06:ae:f9:df:be:e0:cb:f0:b7:73:2b:
         16:92:30:e6:e4:39:65:af:df:17:d2:7f:aa:b8:8e:a6:53:57:
         84:8b:fd:81:62:71:31:19:bb:66:d3:b8:cd:95:dd:0d:9a:d5:
         a8:ac:a5:ab:3c:5e:72:8d:c3:bc:c9:be:9f:cb:bf:dc:c0:69:
         df:82:71:1d:13:92:1e:c4:b8:e6:95:16:f5:1c:c9:5c:1f:39:
         b5:5d:5f:b9:3a:ae:ec:73:be:80:b0:a4:d5:ab:5d:e5:93:bf:
         9d:04:cc:a5:90:df:ef:25:d9:86:aa:7e:e3:1a:4c:95:b4:8f:
         36:2a:9b:97:ac:68:36:8f:80:96:32:a4:56:46:8f:fb:46:59:
         23:ba:21:b8:fd:d0:27:13:b1:7c:2d:4f:6d:6e:38:3b:2a:94:
         6e:92:e7:f8:ea:a7:a4:e4
-----BEGIN CERTIFICATE-----
MIIF8TCCA9mgAwIBAgICJZYwDQYJKoZIhvcNAQENBQAwdjELMAkGA1UEBhMCVVMx
EzARBgNVBAgMCkNhbGlmb3JuaWExDjAMBgNVBAoMBWRyZmN4MQwwCgYDVQQLDAN2
cG4xFjAUBgNVBAMMDXZwbi5kcmZjeC5jb20xHDAaBgkqhkiG9w0BCQEWDXZwbkBk
cmZjeC5jb20wHhcNMTcwNzMwMDQxODUyWhcNMTgwOTAzMDQxODUyWjByMQswCQYD
VQQGEwJVUzETMBEGA1UECAwKQ2FsaWZvcm5pYTEOMAwGA1UECgwFZHJmY3gxDDAK
BgNVBAsMA3ZwbjEPMA0GA1UEAwwGcm91dGVyMR8wHQYJKoZIhvcNAQkBFhByb3V0
ZXJAZHJmY3guY29tMIICIjANBgkqhkiG9w0BAQEFAAOCAg8AMIICCgKCAgEA0f+C
8AKP6CWVM553KwzObI8tpl9lb46AF+RrDygCqNQZHj6zkV5ufQgmQm6Yiwlf9QqR
1GUvZlAJe4hiLscDErO1fzhugz/3JN+5SFsoZV93wBu53D8aV22iNsrL3hxTRoGb
sW612teM24bB6ZLypyhygt4BZetFqkVkTK0kIKJbehg6XJuWS2P3r06Uy/nk0LJO
fvWP0Vnua+7h3GCxBQSP2cp0vz5WVJU3gXNxaQ9n93vNMOvgO6hfAOZBJvYhI1f1
CMr7bOL648PoTyuHN7IgITICFTflCQxDj/+T4xcQIiuha/I58wcjm8a48FsHK9Y4
M/fhsVPBwfd+kGsiV0yW0cQUwux7ldujeLSu49nISdEMUbfu7uZ3mcfOQNB5SWFQ
vOpx8GnQqTZwC49qdm1ZapOLBt8dj6YjvIpC89V9U17Z80KZkCsP/daILU5765AJ
e6dpAvBSXxYgopAMF2yeyIu+Sz16zxrftOQtf2Vm032pC2EMuUUj8H+ikeQDORUE
nl/fOdpdeAX9ZiXYWDUqFjE77VMtMtWWycn3NVCsf8B81L6iDRhGVc1rXV5mGXeL
AQ2pSG/pvLEuGcHc5AN7wY7i0OZF1R1C32k+vTazZufmIeKJrvV4cvWWSXdAM5bg
SOduFmSvEtCihdlhcZ3TpKSgW5pdhCQUdB37uQ8CAwEAAaOBjDCBiTAMBgNVHRMB
Af8EAjAAMA4GA1UdDwEB/wQEAwIDiDAWBgNVHSUBAf8EDDAKBggrBgEFBQcDAjAd
BgNVHQ4EFgQUqaITAX8tphiDhSo8i3QlhJGtyXIwHwYDVR0jBBgwFoAUcr76maWo
ogy+LAvptVfkGkHK8yMwEQYIKwYBBQUHARgEBTADAgERMA0GCSqGSIb3DQEBDQUA
A4ICAQAX7c6nI6s/P3JKORHUIqnmRMUp6zFVRyCgiDq6DvpJxAsfp9yorw9b+m5t
n5dFJ5yVJt1TDtD/IOBmjslJLuKdF8ZYQ0sFKbSHYlqGcgyTqkIWe4ct+yCj/qkz
0YHFzmJy9pk98LxtzvcCl//mtDAcZ5vFfwVW92eJv1zMtUgzC0csTowgpxAHfsbG
R9vnMuYqps5xje3VM9vL3rLOlqvXxOO2K1Bg2pRR+XNnr5xS12HbbXu+B/61QXD7
bvcgZIcg3tBwMTTuIYxbtzW/Ad3W9hTAzZUtu8YMXe0o0nqvJiGOk8n4q34pFj+B
H5X/rCqLYcz+Fw7TGAeYetDb3LBPLKa2sl3sABhw255wWqjhXDKy/fpYeiT7d1uQ
G1vFDa/1ueXC0fdmxTzv06+FCfwTb5MWMVL9KVs5IA+z/9saYrn7q9Fm//ua246V
7mDb7h6Yk7vMRPU2NplUfAYBBq75377gy/C3cysWkjDm5Dllr98X0n+quI6mU1eE
i/2BYnExGbtm07jNld0NmtWorKWrPF5yjcO8yb6fy7/cwGnfgnEdE5IexLjmlRb1
HMlcHzm1XV+5Oq7sc76AsKTVq13lk7+dBMylkN/vJdmGqn7jGkyVtI82KpuXrGg2
j4CWMqRWRo/7RlkjuiG4/dAnE7F8LU9tbjg7KpRukuf46qek5A==
-----END CERTIFICATE-----
