Certificate:
    Data:
        Version: 3 (0x2)
        Serial Number: 9616 (0x2590)
    Signature Algorithm: sha512WithRSAEncryption
        Issuer: C=US, ST=California, O=drfcx, OU=vpn, CN=vpn.drfcx.com/emailAddress=vpn@drfcx.com
        Validity
            Not Before: Jul 17 23:11:57 2017 GMT
            Not After : Aug 21 23:11:57 2018 GMT
        Subject: C=US, ST=California, O=drfcx, OU=vpn, CN=Mark Hill via Alpine/emailAddress=mark@drfcx.com
        Subject Public Key Info:
            Public Key Algorithm: rsaEncryption
                Public-Key: (4096 bit)
                Modulus:
                    00:c9:47:3e:cd:1c:45:d7:33:8f:30:41:8a:9c:87:
                    1d:0c:1c:1f:00:04:3d:19:88:21:79:54:a1:9f:e7:
                    ed:52:72:8f:6d:13:69:4c:ca:41:dd:b1:d2:e1:b3:
                    00:74:aa:c9:3d:a0:d1:c1:72:4a:e2:09:73:5a:98:
                    67:c0:d8:64:3e:57:c2:9d:fa:8d:ba:6c:fa:f9:e7:
                    43:7a:42:7f:c8:84:3d:67:02:e8:66:5f:8b:e1:3e:
                    17:46:41:fc:3b:45:e0:e0:5a:d5:cc:19:36:ce:e9:
                    e8:c4:39:a6:22:f4:b7:a8:f1:16:cf:c0:c0:03:8a:
                    6f:7f:31:cf:3b:d2:b6:a2:39:e2:6c:9d:47:fb:71:
                    a1:25:6a:a6:77:9d:09:78:12:6b:88:79:6f:27:88:
                    39:12:26:9c:01:8a:f4:e7:f7:45:4e:03:34:21:51:
                    12:5c:f5:1e:08:a2:98:fc:f7:97:0a:d4:d5:4e:7e:
                    e0:f3:93:b6:00:ba:2d:e0:99:f2:25:f5:7a:d9:ca:
                    02:c9:35:77:20:41:d2:f8:cc:e5:98:56:c5:b0:bc:
                    a3:5b:6f:2e:5e:59:7c:5c:5b:1a:61:a0:04:d6:e6:
                    1e:dc:fe:ac:2c:06:96:ac:a0:23:63:e5:9c:70:b2:
                    c5:de:dc:6e:10:55:12:58:26:27:69:7b:51:ab:b9:
                    c0:b8:af:f0:dd:ee:aa:50:a9:55:8e:f8:10:66:89:
                    3e:2d:a5:06:61:72:ef:3f:5b:41:8b:00:58:11:b0:
                    28:f8:de:d9:b6:d5:e8:67:dd:6c:4e:70:4f:25:02:
                    2e:bb:c0:42:5a:07:64:9a:c5:a2:05:d5:95:ae:6a:
                    6b:9a:2e:94:b2:e6:f6:15:38:e7:1a:fb:ba:d0:42:
                    29:2e:98:48:ab:c6:a7:7d:da:bf:d8:1e:c9:9c:2a:
                    95:83:15:45:e8:0e:3c:29:f4:b3:a5:64:4a:18:c6:
                    4c:af:86:ff:52:01:ba:43:cd:52:a9:15:29:85:b3:
                    fb:ce:88:71:12:96:0b:a1:ec:71:a8:7c:40:e0:95:
                    cf:64:14:4e:76:a4:1f:6e:61:ef:34:78:db:65:82:
                    04:64:81:c9:cf:f6:8f:f8:c9:a7:84:01:a9:ee:d1:
                    54:4d:31:b1:1c:e8:e2:6f:7b:ac:20:af:a0:6f:35:
                    0e:ad:85:0a:47:e5:ea:c8:01:c6:24:a4:8b:4d:8c:
                    95:c9:27:eb:b6:66:60:fc:78:b4:d9:10:16:2c:f5:
                    27:e6:cb:d7:e0:df:96:3d:fe:5c:f0:3a:e7:51:2e:
                    1d:c7:55:99:b5:f5:72:b6:c7:96:f4:57:4f:03:db:
                    ef:ec:93:20:97:bb:65:ca:f5:c3:83:ca:23:69:c7:
                    34:5c:13
                Exponent: 65537 (0x10001)
        X509v3 extensions:
            X509v3 Basic Constraints: critical
                CA:FALSE
            X509v3 Key Usage: critical
                Digital Signature, Key Agreement
            X509v3 Extended Key Usage: critical
                TLS Web Client Authentication
            X509v3 Subject Key Identifier: 
                BD:5D:EA:09:D3:F3:2E:F6:98:D0:0C:1A:A7:BC:78:08:C1:EF:3C:F6
            X509v3 Authority Key Identifier: 
                keyid:72:BE:FA:99:A5:A8:A2:0C:BE:2C:0B:E9:B5:57:E4:1A:41:CA:F3:23

            TLS Feature: 
                status_request_v2
    Signature Algorithm: sha512WithRSAEncryption
         41:f5:33:1f:42:63:49:3d:10:df:64:59:f5:22:d1:66:85:c3:
         76:2d:b7:a4:94:c5:bb:cf:ea:92:91:e4:29:27:3c:eb:41:72:
         70:e3:91:32:f8:3f:59:55:44:be:8b:16:f0:ea:ea:cb:d9:ff:
         51:5d:01:7a:82:ba:6b:e6:fd:ad:e8:d5:b2:91:a2:7d:12:79:
         bd:4e:23:16:2d:66:29:e2:21:50:cb:38:0c:44:f9:ba:a4:65:
         62:06:78:26:23:73:f8:43:1b:20:79:1d:44:84:9f:51:40:d6:
         73:b5:84:db:7f:c1:8d:3b:b5:2a:19:14:51:0a:7b:d3:cf:16:
         5e:37:a7:aa:6d:d5:3d:f5:f3:7d:e6:e2:93:63:53:ea:51:4b:
         7f:b6:a0:7f:0f:10:cb:4b:ea:e4:9b:f9:15:95:f9:fb:25:8a:
         da:df:15:11:12:fb:0f:5b:77:e4:64:06:97:09:bb:1b:b6:51:
         6f:fe:bb:7e:ad:c6:27:a0:8c:d2:16:e4:0a:cf:6c:6f:1b:d6:
         d3:9e:94:d6:42:36:85:5a:c1:1d:f9:5d:78:ae:1d:31:38:ab:
         34:d1:2b:3d:39:bd:24:70:a5:82:73:f1:82:5e:ab:4e:86:c2:
         a5:db:3a:76:47:9d:79:b9:db:13:15:f2:16:8b:fa:57:3a:bf:
         41:c1:b2:0e:c7:16:dc:47:5e:8b:27:4a:af:9b:dd:45:b2:c9:
         1e:0c:7a:2e:55:01:cc:83:b8:79:a7:86:ad:7c:06:5b:86:6b:
         6d:77:b3:a1:f3:c8:c1:90:a5:5a:d8:be:37:9b:14:ea:63:dc:
         6e:da:d6:af:5c:5d:b3:7d:ff:98:b2:f1:24:4f:24:b7:1b:57:
         84:f4:b3:ba:67:8d:f8:d1:ed:9f:b2:c4:49:a8:f3:12:3d:0c:
         0b:c1:82:ea:54:4e:2f:65:6c:18:32:0c:a1:f8:d6:f4:f3:ef:
         91:49:80:84:61:2c:22:ac:27:f0:fe:4c:01:3f:9f:30:df:5b:
         62:a7:f8:7c:64:d8:2b:99:0e:5d:87:dd:3e:29:92:58:21:36:
         61:79:cc:22:34:5f:50:28:95:bb:8e:ca:6e:eb:94:9a:40:84:
         1a:fe:d2:ca:9a:4c:48:28:d3:f5:c4:65:a7:e0:21:0b:1b:2f:
         da:fb:48:29:b4:0a:df:95:94:4e:d6:88:fd:0c:06:26:d7:3f:
         b8:c1:08:e0:11:90:9e:37:b9:7c:f5:b6:e8:4b:ac:92:0b:b7:
         ad:e7:5e:16:85:58:74:82:72:f5:c9:3b:6e:7c:43:30:43:57:
         d9:7b:a5:e2:ea:be:87:06:b8:7a:04:8b:f7:99:fc:f5:7d:fc:
         35:fd:e1:fc:84:98:52:7a
-----BEGIN CERTIFICATE-----
MIIF/TCCA+WgAwIBAgICJZAwDQYJKoZIhvcNAQENBQAwdjELMAkGA1UEBhMCVVMx
EzARBgNVBAgMCkNhbGlmb3JuaWExDjAMBgNVBAoMBWRyZmN4MQwwCgYDVQQLDAN2
cG4xFjAUBgNVBAMMDXZwbi5kcmZjeC5jb20xHDAaBgkqhkiG9w0BCQEWDXZwbkBk
cmZjeC5jb20wHhcNMTcwNzE3MjMxMTU3WhcNMTgwODIxMjMxMTU3WjB+MQswCQYD
VQQGEwJVUzETMBEGA1UECAwKQ2FsaWZvcm5pYTEOMAwGA1UECgwFZHJmY3gxDDAK
BgNVBAsMA3ZwbjEdMBsGA1UEAwwUTWFyayBIaWxsIHZpYSBBbHBpbmUxHTAbBgkq
hkiG9w0BCQEWDm1hcmtAZHJmY3guY29tMIICIjANBgkqhkiG9w0BAQEFAAOCAg8A
MIICCgKCAgEAyUc+zRxF1zOPMEGKnIcdDBwfAAQ9GYgheVShn+ftUnKPbRNpTMpB
3bHS4bMAdKrJPaDRwXJK4glzWphnwNhkPlfCnfqNumz6+edDekJ/yIQ9ZwLoZl+L
4T4XRkH8O0Xg4FrVzBk2zunoxDmmIvS3qPEWz8DAA4pvfzHPO9K2ojnibJ1H+3Gh
JWqmd50JeBJriHlvJ4g5EiacAYr05/dFTgM0IVESXPUeCKKY/PeXCtTVTn7g85O2
ALot4JnyJfV62coCyTV3IEHS+MzlmFbFsLyjW28uXll8XFsaYaAE1uYe3P6sLAaW
rKAjY+WccLLF3txuEFUSWCYnaXtRq7nAuK/w3e6qUKlVjvgQZok+LaUGYXLvP1tB
iwBYEbAo+N7ZttXoZ91sTnBPJQIuu8BCWgdkmsWiBdWVrmprmi6Usub2FTjnGvu6
0EIpLphIq8anfdq/2B7JnCqVgxVF6A48KfSzpWRKGMZMr4b/UgG6Q81SqRUphbP7
zohxEpYLoexxqHxA4JXPZBROdqQfbmHvNHjbZYIEZIHJz/aP+MmnhAGp7tFUTTGx
HOjib3usIK+gbzUOrYUKR+XqyAHGJKSLTYyVySfrtmZg/Hi02RAWLPUn5svX4N+W
Pf5c8DrnUS4dx1WZtfVytseW9FdPA9vv7JMgl7tlyvXDg8ojacc0XBMCAwEAAaOB
jDCBiTAMBgNVHRMBAf8EAjAAMA4GA1UdDwEB/wQEAwIDiDAWBgNVHSUBAf8EDDAK
BggrBgEFBQcDAjAdBgNVHQ4EFgQUvV3qCdPzLvaY0Awap7x4CMHvPPYwHwYDVR0j
BBgwFoAUcr76maWoogy+LAvptVfkGkHK8yMwEQYIKwYBBQUHARgEBTADAgERMA0G
CSqGSIb3DQEBDQUAA4ICAQBB9TMfQmNJPRDfZFn1ItFmhcN2LbeklMW7z+qSkeQp
JzzrQXJw45Ey+D9ZVUS+ixbw6urL2f9RXQF6grpr5v2t6NWykaJ9Enm9TiMWLWYp
4iFQyzgMRPm6pGViBngmI3P4QxsgeR1EhJ9RQNZztYTbf8GNO7UqGRRRCnvTzxZe
N6eqbdU99fN95uKTY1PqUUt/tqB/DxDLS+rkm/kVlfn7JYra3xUREvsPW3fkZAaX
CbsbtlFv/rt+rcYnoIzSFuQKz2xvG9bTnpTWQjaFWsEd+V14rh0xOKs00Ss9Ob0k
cKWCc/GCXqtOhsKl2zp2R515udsTFfIWi/pXOr9BwbIOxxbcR16LJ0qvm91Fsske
DHouVQHMg7h5p4atfAZbhmttd7Oh88jBkKVa2L43mxTqY9xu2tavXF2zff+YsvEk
TyS3G1eE9LO6Z4340e2fssRJqPMSPQwLwYLqVE4vZWwYMgyh+Nb08++RSYCEYSwi
rCfw/kwBP58w31tip/h8ZNgrmQ5dh90+KZJYITZhecwiNF9QKJW7jspu65SaQIQa
/tLKmkxIKNP1xGWn4CELGy/a+0gptArflZRO1oj9DAYm1z+4wQjgEZCeN7l89bbo
S6ySC7et514WhVh0gnL1yTtufEMwQ1fZe6Xi6r6HBrh6BIv3mfz1ffw1/eH8hJhS
eg==
-----END CERTIFICATE-----
