Certificate:
    Data:
        Version: 3 (0x2)
        Serial Number: 9625 (0x2599)
    Signature Algorithm: sha512WithRSAEncryption
        Issuer: C=US, ST=California, O=drfcx, OU=vpn, CN=vpn.drfcx.com/emailAddress=vpn@drfcx.com
        Validity
            Not Before: Aug 21 01:25:06 2017 GMT
            Not After : Nov  4 01:25:06 2018 GMT
        Subject: C=US, ST=California, O=drfcx, OU=vpn, CN=drfcxmainclient/emailAddress=vpn@drfcx.com
        Subject Public Key Info:
            Public Key Algorithm: rsaEncryption
                Public-Key: (4096 bit)
                Modulus:
                    00:c7:aa:5a:aa:a6:98:cb:8e:f3:d1:22:31:37:67:
                    1e:2c:d3:d8:00:e8:90:4c:f0:94:17:32:14:40:06:
                    8f:cc:46:69:fc:7f:9a:d2:c3:25:4b:10:9e:d8:89:
                    ab:5c:35:24:7f:e3:12:ca:a3:86:1f:dc:7c:06:79:
                    d7:cc:25:4b:a2:33:26:3c:fb:94:02:05:63:12:3a:
                    51:00:41:44:d3:09:09:a8:00:f6:67:b4:65:6e:c2:
                    bc:1c:ac:78:61:fb:eb:7e:5c:dd:37:6b:65:15:be:
                    97:00:fb:4b:86:ba:6c:9e:8c:9a:03:69:1c:45:eb:
                    fd:3d:b7:59:57:7b:f2:52:91:26:0c:87:b1:b5:36:
                    5d:02:ec:3c:b4:96:55:70:21:ec:b0:df:cf:68:9b:
                    f3:0f:7e:1a:bf:a9:2e:97:5d:94:5e:2d:78:b8:d9:
                    21:44:c1:09:81:2d:10:32:b5:8a:cf:b2:45:ab:6d:
                    a1:ac:0e:7d:72:93:f3:77:cb:e1:50:8b:d3:43:5d:
                    6e:f2:be:a0:89:83:b7:97:09:f7:4b:4f:a7:53:9f:
                    0d:9d:2f:20:ae:32:69:4f:8d:91:21:c9:39:0b:b7:
                    89:1d:16:71:75:56:58:a0:41:11:31:d9:f9:9d:f9:
                    7d:17:91:f0:ad:54:6e:d5:3b:1e:7d:5a:57:3d:87:
                    a7:79:d0:b5:3e:0e:05:aa:9d:54:ac:bf:a1:84:04:
                    7e:12:fd:f5:5b:f9:6c:3e:6a:c9:ce:3c:4f:35:09:
                    33:53:45:c5:b2:d8:70:0f:4c:d8:6e:8d:c3:df:18:
                    04:03:b1:1b:99:9c:d9:34:d8:0f:32:04:ea:ad:9c:
                    01:e8:e7:11:e4:24:fe:22:67:ed:a6:ef:e1:74:ce:
                    7b:c7:a2:cd:a1:76:bc:33:99:35:87:18:61:63:fb:
                    96:98:cb:8a:a8:39:85:12:17:db:b3:86:5a:61:f0:
                    dc:7c:25:a8:43:83:4d:76:76:a2:54:b6:0f:93:75:
                    19:00:35:41:b1:ff:07:de:05:e9:ed:e9:59:a3:32:
                    a6:ee:3b:d4:e3:70:de:1b:66:40:0d:b7:30:2f:b0:
                    81:ac:6e:81:0e:87:22:5a:35:8a:85:9b:03:db:ca:
                    90:af:cc:ac:6d:58:68:bb:33:3f:5b:c1:46:11:9e:
                    7f:53:c6:6a:be:6e:a5:c7:5d:71:54:d1:01:91:cb:
                    9d:47:13:2a:d8:4a:03:a6:2c:b7:f7:5f:fc:5b:08:
                    d9:78:ae:0d:73:42:a5:68:cb:5d:1e:94:36:02:60:
                    04:60:91:fc:75:2c:f1:35:ae:61:6f:2e:3b:47:cd:
                    ff:0c:2b:18:21:a1:ce:f2:f5:33:7a:b4:d7:0e:19:
                    88:66:3d
                Exponent: 65537 (0x10001)
        X509v3 extensions:
            X509v3 Basic Constraints: critical
                CA:FALSE
            X509v3 Key Usage: critical
                Digital Signature, Key Agreement
            X509v3 Extended Key Usage: critical
                TLS Web Client Authentication
            X509v3 Subject Key Identifier: 
                D9:13:37:FE:DE:34:0A:96:38:92:9B:6E:E7:17:DB:CC:86:40:0C:4B
            X509v3 Authority Key Identifier: 
                keyid:72:BE:FA:99:A5:A8:A2:0C:BE:2C:0B:E9:B5:57:E4:1A:41:CA:F3:23

            TLS Feature: 
                status_request_v2
    Signature Algorithm: sha512WithRSAEncryption
         23:41:b6:25:9f:41:ff:d5:44:14:4e:5d:83:f1:31:88:01:6f:
         b2:c5:0e:74:b9:9b:81:da:e4:a2:72:76:5a:2e:15:2b:0f:94:
         a1:56:fb:9b:28:e2:5d:4f:c0:24:c1:e1:72:ed:78:7d:e0:b2:
         8f:00:92:2c:c8:e2:f2:43:1b:6f:9b:e2:01:1c:d7:57:8d:a6:
         0b:4d:c4:2e:38:c5:49:f2:33:39:3a:5f:9c:d5:17:ac:75:e0:
         e4:77:8d:0e:a8:9b:27:0a:13:40:45:a0:20:42:3a:08:b7:d1:
         32:ff:ce:94:42:8e:27:81:0b:e4:b3:be:59:e1:d8:96:a7:16:
         7e:f4:92:95:68:5c:aa:c5:6e:88:c8:68:54:ad:8a:9e:0b:79:
         3f:b0:a1:9e:69:3f:08:d5:28:83:55:d0:e3:10:84:e4:58:4d:
         25:28:a3:40:c6:b1:1f:3f:66:db:c0:fa:da:25:17:5d:01:0a:
         5c:76:b3:16:10:07:fb:86:41:f2:dc:99:3e:47:c0:72:e6:44:
         eb:ec:91:15:16:ef:dc:c8:81:29:dc:88:20:bd:1b:4b:b3:18:
         6d:39:de:e5:d5:f6:7b:65:3b:13:5c:9f:d7:a3:a7:f9:c3:89:
         63:1d:26:5d:49:b9:39:b2:50:22:b8:25:48:0b:c6:52:d6:dc:
         3e:ca:57:fd:4f:53:96:5d:1d:c2:b4:47:b6:6e:38:1c:d2:f4:
         5d:0b:9d:59:85:a5:75:1f:01:40:7f:8e:8c:53:4c:18:eb:b1:
         aa:f7:43:3a:6e:8c:8f:e9:64:a1:28:76:dd:73:4d:43:cc:05:
         78:b0:77:0c:e5:31:84:1e:86:c7:08:0f:51:cd:40:dc:fb:77:
         3e:8f:87:08:b4:eb:d6:ba:68:73:34:e3:34:69:3e:24:2b:bc:
         54:88:0e:d4:42:a7:1f:46:c0:d8:1c:85:a7:5a:91:f2:a9:2e:
         98:0e:3c:6b:d9:d6:83:d1:74:50:cc:ef:44:2d:77:5a:fa:c6:
         03:fe:c1:4b:ad:f2:62:f7:cc:d0:08:1d:74:c9:37:95:b8:7f:
         fe:2b:3d:b1:1c:a7:64:e2:24:1c:3f:4c:4c:11:80:c6:15:4d:
         a7:e0:43:40:d2:4b:b7:47:7c:ab:16:e2:05:e9:2a:af:34:39:
         d5:20:39:dc:e7:f1:59:66:fa:fc:89:82:c1:2c:fa:ad:76:c4:
         b0:74:2f:6a:01:75:a1:02:06:9d:f8:1e:6f:ae:d1:8e:d2:5a:
         c2:6b:9c:8b:d1:a0:2e:a4:8c:c0:7c:e7:38:bd:bb:11:ff:21:
         46:a2:4c:55:00:65:73:41:1a:1b:89:8e:6e:a4:d1:16:9c:05:
         fa:06:93:bc:54:9c:4f:72
-----BEGIN CERTIFICATE-----
MIIF9zCCA9+gAwIBAgICJZkwDQYJKoZIhvcNAQENBQAwdjELMAkGA1UEBhMCVVMx
EzARBgNVBAgMCkNhbGlmb3JuaWExDjAMBgNVBAoMBWRyZmN4MQwwCgYDVQQLDAN2
cG4xFjAUBgNVBAMMDXZwbi5kcmZjeC5jb20xHDAaBgkqhkiG9w0BCQEWDXZwbkBk
cmZjeC5jb20wHhcNMTcwODIxMDEyNTA2WhcNMTgxMTA0MDEyNTA2WjB4MQswCQYD
VQQGEwJVUzETMBEGA1UECAwKQ2FsaWZvcm5pYTEOMAwGA1UECgwFZHJmY3gxDDAK
BgNVBAsMA3ZwbjEYMBYGA1UEAwwPZHJmY3htYWluY2xpZW50MRwwGgYJKoZIhvcN
AQkBFg12cG5AZHJmY3guY29tMIICIjANBgkqhkiG9w0BAQEFAAOCAg8AMIICCgKC
AgEAx6paqqaYy47z0SIxN2ceLNPYAOiQTPCUFzIUQAaPzEZp/H+a0sMlSxCe2Imr
XDUkf+MSyqOGH9x8BnnXzCVLojMmPPuUAgVjEjpRAEFE0wkJqAD2Z7RlbsK8HKx4
YfvrflzdN2tlFb6XAPtLhrpsnoyaA2kcRev9PbdZV3vyUpEmDIextTZdAuw8tJZV
cCHssN/PaJvzD34av6kul12UXi14uNkhRMEJgS0QMrWKz7JFq22hrA59cpPzd8vh
UIvTQ11u8r6giYO3lwn3S0+nU58NnS8grjJpT42RIck5C7eJHRZxdVZYoEERMdn5
nfl9F5HwrVRu1TsefVpXPYenedC1Pg4Fqp1UrL+hhAR+Ev31W/lsPmrJzjxPNQkz
U0XFsthwD0zYbo3D3xgEA7EbmZzZNNgPMgTqrZwB6OcR5CT+Imftpu/hdM57x6LN
oXa8M5k1hxhhY/uWmMuKqDmFEhfbs4ZaYfDcfCWoQ4NNdnaiVLYPk3UZADVBsf8H
3gXp7elZozKm7jvU43DeG2ZADbcwL7CBrG6BDociWjWKhZsD28qQr8ysbVhouzM/
W8FGEZ5/U8Zqvm6lx11xVNEBkcudRxMq2EoDpiy391/8WwjZeK4Nc0KlaMtdHpQ2
AmAEYJH8dSzxNa5hby47R83/DCsYIaHO8vUzerTXDhmIZj0CAwEAAaOBjDCBiTAM
BgNVHRMBAf8EAjAAMA4GA1UdDwEB/wQEAwIDiDAWBgNVHSUBAf8EDDAKBggrBgEF
BQcDAjAdBgNVHQ4EFgQU2RM3/t40CpY4kptu5xfbzIZADEswHwYDVR0jBBgwFoAU
cr76maWoogy+LAvptVfkGkHK8yMwEQYIKwYBBQUHARgEBTADAgERMA0GCSqGSIb3
DQEBDQUAA4ICAQAjQbYln0H/1UQUTl2D8TGIAW+yxQ50uZuB2uSicnZaLhUrD5Sh
VvubKOJdT8AkweFy7Xh94LKPAJIsyOLyQxtvm+IBHNdXjaYLTcQuOMVJ8jM5Ol+c
1ResdeDkd40OqJsnChNARaAgQjoIt9Ey/86UQo4ngQvks75Z4diWpxZ+9JKVaFyq
xW6IyGhUrYqeC3k/sKGeaT8I1SiDVdDjEITkWE0lKKNAxrEfP2bbwPraJRddAQpc
drMWEAf7hkHy3Jk+R8By5kTr7JEVFu/cyIEp3IggvRtLsxhtOd7l1fZ7ZTsTXJ/X
o6f5w4ljHSZdSbk5slAiuCVIC8ZS1tw+ylf9T1OWXR3CtEe2bjgc0vRdC51ZhaV1
HwFAf46MU0wY67Gq90M6boyP6WShKHbdc01DzAV4sHcM5TGEHobHCA9RzUDc+3c+
j4cItOvWumhzNOM0aT4kK7xUiA7UQqcfRsDYHIWnWpHyqS6YDjxr2daD0XRQzO9E
LXda+sYD/sFLrfJi98zQCB10yTeVuH/+Kz2xHKdk4iQcP0xMEYDGFU2n4ENA0ku3
R3yrFuIF6SqvNDnVIDnc5/FZZvr8iYLBLPqtdsSwdC9qAXWhAgad+B5vrtGO0lrC
a5yL0aAupIzAfOc4vbsR/yFGokxVAGVzQRobiY5upNEWnAX6BpO8VJxPcg==
-----END CERTIFICATE-----
