Certificate:
    Data:
        Version: 3 (0x2)
        Serial Number: 9621 (0x2595)
    Signature Algorithm: sha512WithRSAEncryption
        Issuer: C=US, ST=California, O=drfcx, OU=vpn, CN=vpn.drfcx.com/emailAddress=vpn@drfcx.com
        Validity
            Not Before: Jul 18 01:01:34 2017 GMT
            Not After : Aug 22 01:01:34 2018 GMT
        Subject: C=US, ST=California, O=drfcx, OU=vpn, CN=vpn.drfcx.com/emailAddress=vpn@drfcx.com
        Subject Public Key Info:
            Public Key Algorithm: rsaEncryption
                Public-Key: (4096 bit)
                Modulus:
                    00:c7:aa:5a:aa:a6:98:cb:8e:f3:d1:22:31:37:67:
                    1e:2c:d3:d8:00:e8:90:4c:f0:94:17:32:14:40:06:
                    8f:cc:46:69:fc:7f:9a:d2:c3:25:4b:10:9e:d8:89:
                    ab:5c:35:24:7f:e3:12:ca:a3:86:1f:dc:7c:06:79:
                    d7:cc:25:4b:a2:33:26:3c:fb:94:02:05:63:12:3a:
                    51:00:41:44:d3:09:09:a8:00:f6:67:b4:65:6e:c2:
                    bc:1c:ac:78:61:fb:eb:7e:5c:dd:37:6b:65:15:be:
                    97:00:fb:4b:86:ba:6c:9e:8c:9a:03:69:1c:45:eb:
                    fd:3d:b7:59:57:7b:f2:52:91:26:0c:87:b1:b5:36:
                    5d:02:ec:3c:b4:96:55:70:21:ec:b0:df:cf:68:9b:
                    f3:0f:7e:1a:bf:a9:2e:97:5d:94:5e:2d:78:b8:d9:
                    21:44:c1:09:81:2d:10:32:b5:8a:cf:b2:45:ab:6d:
                    a1:ac:0e:7d:72:93:f3:77:cb:e1:50:8b:d3:43:5d:
                    6e:f2:be:a0:89:83:b7:97:09:f7:4b:4f:a7:53:9f:
                    0d:9d:2f:20:ae:32:69:4f:8d:91:21:c9:39:0b:b7:
                    89:1d:16:71:75:56:58:a0:41:11:31:d9:f9:9d:f9:
                    7d:17:91:f0:ad:54:6e:d5:3b:1e:7d:5a:57:3d:87:
                    a7:79:d0:b5:3e:0e:05:aa:9d:54:ac:bf:a1:84:04:
                    7e:12:fd:f5:5b:f9:6c:3e:6a:c9:ce:3c:4f:35:09:
                    33:53:45:c5:b2:d8:70:0f:4c:d8:6e:8d:c3:df:18:
                    04:03:b1:1b:99:9c:d9:34:d8:0f:32:04:ea:ad:9c:
                    01:e8:e7:11:e4:24:fe:22:67:ed:a6:ef:e1:74:ce:
                    7b:c7:a2:cd:a1:76:bc:33:99:35:87:18:61:63:fb:
                    96:98:cb:8a:a8:39:85:12:17:db:b3:86:5a:61:f0:
                    dc:7c:25:a8:43:83:4d:76:76:a2:54:b6:0f:93:75:
                    19:00:35:41:b1:ff:07:de:05:e9:ed:e9:59:a3:32:
                    a6:ee:3b:d4:e3:70:de:1b:66:40:0d:b7:30:2f:b0:
                    81:ac:6e:81:0e:87:22:5a:35:8a:85:9b:03:db:ca:
                    90:af:cc:ac:6d:58:68:bb:33:3f:5b:c1:46:11:9e:
                    7f:53:c6:6a:be:6e:a5:c7:5d:71:54:d1:01:91:cb:
                    9d:47:13:2a:d8:4a:03:a6:2c:b7:f7:5f:fc:5b:08:
                    d9:78:ae:0d:73:42:a5:68:cb:5d:1e:94:36:02:60:
                    04:60:91:fc:75:2c:f1:35:ae:61:6f:2e:3b:47:cd:
                    ff:0c:2b:18:21:a1:ce:f2:f5:33:7a:b4:d7:0e:19:
                    88:66:3d
                Exponent: 65537 (0x10001)
        X509v3 extensions:
            X509v3 Basic Constraints: critical
                CA:FALSE
            X509v3 Key Usage: critical
                Digital Signature, Key Encipherment
            X509v3 Extended Key Usage: critical
                TLS Web Server Authentication
            X509v3 Subject Key Identifier: 
                D9:13:37:FE:DE:34:0A:96:38:92:9B:6E:E7:17:DB:CC:86:40:0C:4B
            X509v3 Authority Key Identifier: 
                keyid:72:BE:FA:99:A5:A8:A2:0C:BE:2C:0B:E9:B5:57:E4:1A:41:CA:F3:23

            TLS Feature: 
                status_request_v2
    Signature Algorithm: sha512WithRSAEncryption
         92:02:53:13:b6:b3:8e:04:d5:39:d8:64:02:cc:2a:24:a4:99:
         70:d0:08:dd:57:9b:c0:f1:b5:4f:b7:57:98:34:72:7e:bc:38:
         9a:2c:d2:d6:60:03:b6:a1:4a:1d:04:7c:ac:a2:f7:b8:5e:78:
         b8:05:49:2f:1b:94:01:7b:75:fd:21:51:bc:1e:69:21:2c:9e:
         40:ad:c8:ba:22:7a:27:59:1e:d8:93:e4:d2:de:d4:b7:23:d1:
         1e:47:ea:7e:d6:86:bf:d8:65:70:be:35:51:95:ce:29:42:f6:
         08:96:30:e9:81:e3:24:cd:b4:bd:b0:b0:35:1e:5f:e3:52:d8:
         ad:1e:ca:46:14:c5:8c:fc:80:3a:2d:e3:f8:33:65:67:5f:79:
         67:57:9d:2c:10:65:ee:67:df:78:27:1e:e4:7f:eb:bb:c8:0b:
         d4:82:b3:39:d8:6b:52:51:ff:af:65:c1:c3:0e:dd:a2:fd:23:
         6c:18:59:29:c9:8c:a3:d9:3b:55:53:3b:7b:c1:3a:1f:c6:5a:
         0d:b3:71:ad:41:d6:76:61:86:7c:ca:5f:0e:f2:31:a6:a7:b3:
         3d:6e:d3:ae:ae:71:41:0d:9a:e9:f6:ab:1c:5e:a0:37:f5:98:
         92:b9:3c:0a:6a:aa:70:55:57:dd:cb:78:36:39:22:53:80:24:
         a6:41:2a:8d:eb:5f:1e:0e:4f:61:56:44:89:80:35:d7:a9:0d:
         02:75:80:72:40:04:2a:63:4c:d3:ee:da:59:e6:d6:ed:05:17:
         5c:f2:66:12:1f:b9:29:83:90:aa:b8:06:8a:9c:de:60:c5:2c:
         71:dd:6c:be:75:02:13:3d:9f:28:3d:44:0f:01:0a:63:96:9f:
         f8:a3:79:d8:ec:be:ea:8a:6f:9f:31:e7:06:39:6a:61:54:c7:
         ff:26:10:fa:c5:84:24:bc:18:ed:62:6d:8d:2f:b2:7d:fb:c0:
         d0:2e:b5:f1:7a:72:2c:ae:31:06:95:7b:1f:3e:c2:5b:af:3a:
         53:3d:67:1c:f7:0b:f7:09:4c:59:8b:be:5a:2f:aa:8b:88:f0:
         d9:2b:ec:34:da:9e:c8:93:44:35:40:4b:f1:f4:b5:96:b0:14:
         dd:69:84:31:9e:7b:67:e6:90:63:20:cb:bd:7b:3b:14:8a:be:
         39:7a:79:65:9f:12:6a:e2:b1:f8:91:12:a6:83:e5:70:ec:f6:
         62:30:df:01:8e:63:ee:79:23:4a:fc:c8:02:b4:1f:47:84:d5:
         12:26:46:76:e1:01:9e:01:5f:a8:cf:cb:5e:fe:60:d8:a9:6a:
         5a:ce:fe:34:3d:bb:c0:b7:7d:54:a4:4b:6d:53:ee:66:44:68:
         c6:90:1f:d6:9a:a0:7e:a6
-----BEGIN CERTIFICATE-----
MIIF9TCCA92gAwIBAgICJZUwDQYJKoZIhvcNAQENBQAwdjELMAkGA1UEBhMCVVMx
EzARBgNVBAgMCkNhbGlmb3JuaWExDjAMBgNVBAoMBWRyZmN4MQwwCgYDVQQLDAN2
cG4xFjAUBgNVBAMMDXZwbi5kcmZjeC5jb20xHDAaBgkqhkiG9w0BCQEWDXZwbkBk
cmZjeC5jb20wHhcNMTcwNzE4MDEwMTM0WhcNMTgwODIyMDEwMTM0WjB2MQswCQYD
VQQGEwJVUzETMBEGA1UECAwKQ2FsaWZvcm5pYTEOMAwGA1UECgwFZHJmY3gxDDAK
BgNVBAsMA3ZwbjEWMBQGA1UEAwwNdnBuLmRyZmN4LmNvbTEcMBoGCSqGSIb3DQEJ
ARYNdnBuQGRyZmN4LmNvbTCCAiIwDQYJKoZIhvcNAQEBBQADggIPADCCAgoCggIB
AMeqWqqmmMuO89EiMTdnHizT2ADokEzwlBcyFEAGj8xGafx/mtLDJUsQntiJq1w1
JH/jEsqjhh/cfAZ518wlS6IzJjz7lAIFYxI6UQBBRNMJCagA9me0ZW7CvByseGH7
635c3TdrZRW+lwD7S4a6bJ6MmgNpHEXr/T23WVd78lKRJgyHsbU2XQLsPLSWVXAh
7LDfz2ib8w9+Gr+pLpddlF4teLjZIUTBCYEtEDK1is+yRattoawOfXKT83fL4VCL
00NdbvK+oImDt5cJ90tPp1OfDZ0vIK4yaU+NkSHJOQu3iR0WcXVWWKBBETHZ+Z35
fReR8K1UbtU7Hn1aVz2Hp3nQtT4OBaqdVKy/oYQEfhL99Vv5bD5qyc48TzUJM1NF
xbLYcA9M2G6Nw98YBAOxG5mc2TTYDzIE6q2cAejnEeQk/iJn7abv4XTOe8eizaF2
vDOZNYcYYWP7lpjLiqg5hRIX27OGWmHw3HwlqEODTXZ2olS2D5N1GQA1QbH/B94F
6e3pWaMypu471ONw3htmQA23MC+wgaxugQ6HIlo1ioWbA9vKkK/MrG1YaLszP1vB
RhGef1PGar5upcddcVTRAZHLnUcTKthKA6Yst/df/FsI2XiuDXNCpWjLXR6UNgJg
BGCR/HUs8TWuYW8uO0fN/wwrGCGhzvL1M3q01w4ZiGY9AgMBAAGjgYwwgYkwDAYD
VR0TAQH/BAIwADAOBgNVHQ8BAf8EBAMCBaAwFgYDVR0lAQH/BAwwCgYIKwYBBQUH
AwEwHQYDVR0OBBYEFNkTN/7eNAqWOJKbbucX28yGQAxLMB8GA1UdIwQYMBaAFHK+
+pmlqKIMviwL6bVX5BpByvMjMBEGCCsGAQUFBwEYBAUwAwIBETANBgkqhkiG9w0B
AQ0FAAOCAgEAkgJTE7azjgTVOdhkAswqJKSZcNAI3VebwPG1T7dXmDRyfrw4mizS
1mADtqFKHQR8rKL3uF54uAVJLxuUAXt1/SFRvB5pISyeQK3IuiJ6J1ke2JPk0t7U
tyPRHkfqftaGv9hlcL41UZXOKUL2CJYw6YHjJM20vbCwNR5f41LYrR7KRhTFjPyA
Oi3j+DNlZ195Z1edLBBl7mffeCce5H/ru8gL1IKzOdhrUlH/r2XBww7dov0jbBhZ
KcmMo9k7VVM7e8E6H8ZaDbNxrUHWdmGGfMpfDvIxpqezPW7Trq5xQQ2a6farHF6g
N/WYkrk8CmqqcFVX3ct4NjkiU4AkpkEqjetfHg5PYVZEiYA116kNAnWAckAEKmNM
0+7aWebW7QUXXPJmEh+5KYOQqrgGipzeYMUscd1svnUCEz2fKD1EDwEKY5af+KN5
2Oy+6opvnzHnBjlqYVTH/yYQ+sWEJLwY7WJtjS+yffvA0C618XpyLK4xBpV7Hz7C
W686Uz1nHPcL9wlMWYu+Wi+qi4jw2SvsNNqeyJNENUBL8fS1lrAU3WmEMZ57Z+aQ
YyDLvXs7FIq+OXp5ZZ8SauKx+JESpoPlcOz2YjDfAY5j7nkjSvzIArQfR4TVEiZG
duEBngFfqM/LXv5g2KlqWs7+ND27wLd9VKRLbVPuZkRoxpAf1pqgfqY=
-----END CERTIFICATE-----
