Certificate:
    Data:
        Version: 3 (0x2)
        Serial Number: 9620 (0x2594)
    Signature Algorithm: sha512WithRSAEncryption
        Issuer: C=US, ST=California, O=drfcx, OU=vpn, CN=vpn.drfcx.com/emailAddress=vpn@drfcx.com
        Validity
            Not Before: Jul 18 00:57:12 2017 GMT
            Not After : Aug 22 00:57:12 2018 GMT
        Subject: C=US, ST=California, O=drfcx, OU=vpn, CN=Mark Hill via Aerex/emailAddress=mark@drfcx.com
        Subject Public Key Info:
            Public Key Algorithm: rsaEncryption
                Public-Key: (4096 bit)
                Modulus:
                    00:a5:b1:99:3a:1d:12:c8:ec:30:ed:ac:20:6e:16:
                    19:a4:79:cb:bf:aa:10:da:d1:9f:3c:7a:09:ec:cf:
                    64:c9:8a:ae:75:9a:be:4f:74:19:30:e8:7e:d2:af:
                    3d:d0:ff:6c:86:1d:bd:a1:26:3f:c1:07:3d:a6:8f:
                    a8:9f:e6:76:f2:b9:a4:2e:36:1a:e4:f4:98:e3:d2:
                    82:a5:e3:e4:0e:ec:46:2c:32:84:af:06:d9:b3:88:
                    5d:ce:e7:3d:b9:97:31:b2:a7:7a:7a:c4:86:3b:fc:
                    b0:9f:39:ad:1c:2f:1a:cc:6d:8a:9c:d3:da:61:ab:
                    b2:80:8b:0d:ba:70:ab:38:52:73:41:b0:b9:f8:86:
                    fa:33:96:ec:d9:4f:da:23:87:e2:07:65:ef:ba:5c:
                    59:8b:20:03:eb:05:cf:e3:2a:ca:97:c8:05:45:ef:
                    c8:ba:b9:fa:21:62:4d:c7:11:72:7c:a9:ac:c6:66:
                    d4:c4:66:fa:66:35:0c:a1:56:4a:0f:d4:4a:0d:f9:
                    ff:51:c5:8c:e9:c9:91:6b:63:6f:e7:db:c6:5e:c8:
                    af:43:7d:de:a1:ff:79:05:ab:7e:1c:29:c3:10:7b:
                    eb:36:dc:ea:4d:39:9e:59:11:e5:38:29:c5:2c:1d:
                    9f:cf:47:56:b4:81:87:85:b8:43:39:e0:69:0b:a1:
                    da:6e:3d:b9:88:9d:57:5c:fd:9c:11:f0:e0:60:fe:
                    8b:c8:e2:a8:76:82:b8:1e:f4:1e:c7:20:e9:ae:cc:
                    ba:a5:90:bc:3f:52:56:16:f7:c1:b4:33:db:40:ab:
                    60:b4:af:ec:ac:a4:2c:8b:15:c7:02:ec:39:b1:1b:
                    af:fb:24:e4:74:4c:6e:42:6f:2a:af:c7:c9:fe:22:
                    c9:26:3b:c8:b1:70:60:bc:52:f8:b9:dd:57:70:71:
                    cb:df:7f:69:43:79:ca:c8:9f:97:a0:c0:87:ce:f6:
                    09:ba:c4:b2:65:62:e3:4a:ae:36:5d:2e:96:57:30:
                    5d:44:b5:7c:8f:ca:1a:4e:77:e6:e5:27:5c:98:56:
                    ab:79:c5:c2:a5:56:b0:9f:79:2d:1d:46:55:97:1b:
                    26:9a:46:20:89:b0:19:5c:5a:cb:c0:bb:43:c4:18:
                    4e:28:68:6d:0f:8a:58:a7:63:b5:e0:54:cb:fb:3e:
                    43:39:fe:47:af:45:84:bf:2c:45:f7:11:2e:87:6c:
                    dc:c8:31:db:69:04:52:3f:09:63:90:79:5b:fa:02:
                    56:df:97:ae:02:e6:31:52:8e:01:94:ed:09:f6:96:
                    c7:60:54:00:7d:3a:7c:03:ff:69:b7:f2:e0:45:c8:
                    67:cb:5d:6d:bc:a6:1a:aa:06:bf:d4:92:17:62:3d:
                    a4:9f:5b
                Exponent: 65537 (0x10001)
        X509v3 extensions:
            X509v3 Basic Constraints: critical
                CA:FALSE
            X509v3 Key Usage: critical
                Digital Signature, Key Agreement
            X509v3 Extended Key Usage: critical
                TLS Web Client Authentication
            X509v3 Subject Key Identifier: 
                DF:63:10:1E:30:56:00:BC:8C:E6:14:4A:0F:74:B4:2D:01:63:04:A2
            X509v3 Authority Key Identifier: 
                keyid:72:BE:FA:99:A5:A8:A2:0C:BE:2C:0B:E9:B5:57:E4:1A:41:CA:F3:23

            TLS Feature: 
                status_request_v2
    Signature Algorithm: sha512WithRSAEncryption
         32:5d:3e:62:aa:cb:73:d9:20:f9:34:60:17:75:06:12:72:22:
         24:29:f9:8f:6c:c1:b7:88:dc:e3:d8:dd:a3:36:e0:84:1c:0f:
         43:26:6c:03:4f:20:e6:81:f8:29:6d:fe:dd:0c:6c:6d:39:ad:
         a9:99:a3:3a:33:36:0d:db:43:f9:ca:d8:c8:e3:3f:f7:1d:ce:
         32:0b:58:e2:38:e5:72:a3:c4:52:13:90:a2:4a:ed:0d:57:cb:
         41:11:34:64:43:87:e0:a0:ed:3a:b6:42:45:67:37:d6:f0:6e:
         8e:97:7f:a0:54:68:5f:34:4b:85:d3:69:35:33:83:45:25:00:
         62:1d:0c:61:68:29:21:38:8a:86:42:bf:d5:3a:6e:97:ba:54:
         ff:24:5f:af:56:a9:5a:d0:f9:73:e1:b5:48:c2:d0:ca:b4:cb:
         fe:81:f7:ef:e9:2d:2c:4e:98:ef:b0:8b:ab:5c:f1:b3:11:18:
         6e:3f:5d:7e:5b:fe:fa:47:58:11:30:db:73:c4:df:eb:20:a9:
         82:7d:97:bd:6c:76:fd:de:c9:58:f2:22:bd:35:27:84:e9:d4:
         c2:c1:98:bd:c9:68:8f:a2:94:cd:7e:e8:e6:51:25:2a:20:24:
         92:38:67:50:4d:cf:50:6f:9f:70:1a:e8:e1:3d:91:ed:7e:0e:
         41:82:65:e8:86:2b:9b:93:74:67:95:30:2a:b3:c2:98:30:ab:
         b3:b8:85:51:28:2f:d5:6a:29:e7:9c:40:7a:0f:c2:3b:25:07:
         47:21:e6:98:f7:5a:0d:54:3d:16:4c:d5:20:6b:11:03:57:8e:
         08:15:47:bb:fd:5f:8c:0f:05:92:e5:a1:10:ce:cf:47:c5:97:
         4b:d3:b5:88:a6:62:e5:19:e2:3d:7d:44:ad:ed:b2:fd:8b:78:
         02:b3:88:fd:b9:28:06:f3:eb:b3:55:96:41:70:0c:d8:62:bc:
         35:fc:84:41:fc:d3:69:1f:4a:ae:07:f2:7a:6e:71:99:f1:cc:
         e6:28:37:a3:f3:b1:d0:ee:ff:72:a3:b3:c9:0a:05:58:b4:11:
         45:4f:b1:0d:71:39:4a:cd:56:eb:52:75:f3:a0:46:29:d7:ff:
         97:31:b5:3f:88:c5:9a:bf:05:de:dd:1f:79:9e:a5:e1:13:36:
         e5:64:ec:be:0c:66:8d:5c:f1:c2:f3:12:c4:5c:0e:37:3a:fa:
         ec:c7:5b:e4:e3:22:6e:58:9d:bf:a1:46:e2:ce:36:7c:9d:68:
         91:f5:b8:27:28:2a:02:a0:89:53:6f:45:d8:0c:00:03:6a:6f:
         bb:54:f5:e0:c4:40:ca:f1:62:6a:3a:6b:63:9d:65:e7:00:c5:
         9e:e8:18:86:00:16:23:a2
-----BEGIN CERTIFICATE-----
MIIF/DCCA+SgAwIBAgICJZQwDQYJKoZIhvcNAQENBQAwdjELMAkGA1UEBhMCVVMx
EzARBgNVBAgMCkNhbGlmb3JuaWExDjAMBgNVBAoMBWRyZmN4MQwwCgYDVQQLDAN2
cG4xFjAUBgNVBAMMDXZwbi5kcmZjeC5jb20xHDAaBgkqhkiG9w0BCQEWDXZwbkBk
cmZjeC5jb20wHhcNMTcwNzE4MDA1NzEyWhcNMTgwODIyMDA1NzEyWjB9MQswCQYD
VQQGEwJVUzETMBEGA1UECAwKQ2FsaWZvcm5pYTEOMAwGA1UECgwFZHJmY3gxDDAK
BgNVBAsMA3ZwbjEcMBoGA1UEAwwTTWFyayBIaWxsIHZpYSBBZXJleDEdMBsGCSqG
SIb3DQEJARYObWFya0BkcmZjeC5jb20wggIiMA0GCSqGSIb3DQEBAQUAA4ICDwAw
ggIKAoICAQClsZk6HRLI7DDtrCBuFhmkecu/qhDa0Z88egnsz2TJiq51mr5PdBkw
6H7Srz3Q/2yGHb2hJj/BBz2mj6if5nbyuaQuNhrk9Jjj0oKl4+QO7EYsMoSvBtmz
iF3O5z25lzGyp3p6xIY7/LCfOa0cLxrMbYqc09phq7KAiw26cKs4UnNBsLn4hvoz
luzZT9ojh+IHZe+6XFmLIAPrBc/jKsqXyAVF78i6ufohYk3HEXJ8qazGZtTEZvpm
NQyhVkoP1EoN+f9RxYzpyZFrY2/n28ZeyK9Dfd6h/3kFq34cKcMQe+s23OpNOZ5Z
EeU4KcUsHZ/PR1a0gYeFuEM54GkLodpuPbmInVdc/ZwR8OBg/ovI4qh2grge9B7H
IOmuzLqlkLw/UlYW98G0M9tAq2C0r+yspCyLFccC7DmxG6/7JOR0TG5Cbyqvx8n+
IskmO8ixcGC8Uvi53Vdwccvff2lDecrIn5egwIfO9gm6xLJlYuNKrjZdLpZXMF1E
tXyPyhpOd+blJ1yYVqt5xcKlVrCfeS0dRlWXGyaaRiCJsBlcWsvAu0PEGE4oaG0P
ilinY7XgVMv7PkM5/kevRYS/LEX3ES6HbNzIMdtpBFI/CWOQeVv6Albfl64C5jFS
jgGU7Qn2lsdgVAB9OnwD/2m38uBFyGfLXW28phqqBr/UkhdiPaSfWwIDAQABo4GM
MIGJMAwGA1UdEwEB/wQCMAAwDgYDVR0PAQH/BAQDAgOIMBYGA1UdJQEB/wQMMAoG
CCsGAQUFBwMCMB0GA1UdDgQWBBTfYxAeMFYAvIzmFEoPdLQtAWMEojAfBgNVHSME
GDAWgBRyvvqZpaiiDL4sC+m1V+QaQcrzIzARBggrBgEFBQcBGAQFMAMCAREwDQYJ
KoZIhvcNAQENBQADggIBADJdPmKqy3PZIPk0YBd1BhJyIiQp+Y9swbeI3OPY3aM2
4IQcD0MmbANPIOaB+Clt/t0MbG05ramZozozNg3bQ/nK2MjjP/cdzjILWOI45XKj
xFITkKJK7Q1Xy0ERNGRDh+Cg7Tq2QkVnN9bwbo6Xf6BUaF80S4XTaTUzg0UlAGId
DGFoKSE4ioZCv9U6bpe6VP8kX69WqVrQ+XPhtUjC0Mq0y/6B9+/pLSxOmO+wi6tc
8bMRGG4/XX5b/vpHWBEw23PE3+sgqYJ9l71sdv3eyVjyIr01J4Tp1MLBmL3JaI+i
lM1+6OZRJSogJJI4Z1BNz1Bvn3Aa6OE9ke1+DkGCZeiGK5uTdGeVMCqzwpgwq7O4
hVEoL9VqKeecQHoPwjslB0ch5pj3Wg1UPRZM1SBrEQNXjggVR7v9X4wPBZLloRDO
z0fFl0vTtYimYuUZ4j19RK3tsv2LeAKziP25KAbz67NVlkFwDNhivDX8hEH802kf
Sq4H8npucZnxzOYoN6PzsdDu/3Kjs8kKBVi0EUVPsQ1xOUrNVutSdfOgRinX/5cx
tT+IxZq/Bd7dH3mepeETNuVk7L4MZo1c8cLzEsRcDjc6+uzHW+TjIm5Ynb+hRuLO
NnydaJH1uCcoKgKgiVNvRdgMAANqb7tU9eDEQMrxYmo6a2OdZecAxZ7oGIYAFiOi
-----END CERTIFICATE-----
