Certificate:
    Data:
        Version: 3 (0x2)
        Serial Number: 9623 (0x2597)
    Signature Algorithm: sha512WithRSAEncryption
        Issuer: C=US, ST=California, O=drfcx, OU=vpn, CN=vpn.drfcx.com/emailAddress=vpn@drfcx.com
        Validity
            Not Before: Aug  9 08:33:35 2017 GMT
            Not After : Sep 13 08:33:35 2018 GMT
        Subject: C=US, ST=California, O=drfcx, OU=vpn, CN=vpn.drfcx.com/emailAddress=vpn@drfcx.com
        Subject Public Key Info:
            Public Key Algorithm: rsaEncryption
                Public-Key: (4096 bit)
                Modulus:
                    00:c7:aa:5a:aa:a6:98:cb:8e:f3:d1:22:31:37:67:
                    1e:2c:d3:d8:00:e8:90:4c:f0:94:17:32:14:40:06:
                    8f:cc:46:69:fc:7f:9a:d2:c3:25:4b:10:9e:d8:89:
                    ab:5c:35:24:7f:e3:12:ca:a3:86:1f:dc:7c:06:79:
                    d7:cc:25:4b:a2:33:26:3c:fb:94:02:05:63:12:3a:
                    51:00:41:44:d3:09:09:a8:00:f6:67:b4:65:6e:c2:
                    bc:1c:ac:78:61:fb:eb:7e:5c:dd:37:6b:65:15:be:
                    97:00:fb:4b:86:ba:6c:9e:8c:9a:03:69:1c:45:eb:
                    fd:3d:b7:59:57:7b:f2:52:91:26:0c:87:b1:b5:36:
                    5d:02:ec:3c:b4:96:55:70:21:ec:b0:df:cf:68:9b:
                    f3:0f:7e:1a:bf:a9:2e:97:5d:94:5e:2d:78:b8:d9:
                    21:44:c1:09:81:2d:10:32:b5:8a:cf:b2:45:ab:6d:
                    a1:ac:0e:7d:72:93:f3:77:cb:e1:50:8b:d3:43:5d:
                    6e:f2:be:a0:89:83:b7:97:09:f7:4b:4f:a7:53:9f:
                    0d:9d:2f:20:ae:32:69:4f:8d:91:21:c9:39:0b:b7:
                    89:1d:16:71:75:56:58:a0:41:11:31:d9:f9:9d:f9:
                    7d:17:91:f0:ad:54:6e:d5:3b:1e:7d:5a:57:3d:87:
                    a7:79:d0:b5:3e:0e:05:aa:9d:54:ac:bf:a1:84:04:
                    7e:12:fd:f5:5b:f9:6c:3e:6a:c9:ce:3c:4f:35:09:
                    33:53:45:c5:b2:d8:70:0f:4c:d8:6e:8d:c3:df:18:
                    04:03:b1:1b:99:9c:d9:34:d8:0f:32:04:ea:ad:9c:
                    01:e8:e7:11:e4:24:fe:22:67:ed:a6:ef:e1:74:ce:
                    7b:c7:a2:cd:a1:76:bc:33:99:35:87:18:61:63:fb:
                    96:98:cb:8a:a8:39:85:12:17:db:b3:86:5a:61:f0:
                    dc:7c:25:a8:43:83:4d:76:76:a2:54:b6:0f:93:75:
                    19:00:35:41:b1:ff:07:de:05:e9:ed:e9:59:a3:32:
                    a6:ee:3b:d4:e3:70:de:1b:66:40:0d:b7:30:2f:b0:
                    81:ac:6e:81:0e:87:22:5a:35:8a:85:9b:03:db:ca:
                    90:af:cc:ac:6d:58:68:bb:33:3f:5b:c1:46:11:9e:
                    7f:53:c6:6a:be:6e:a5:c7:5d:71:54:d1:01:91:cb:
                    9d:47:13:2a:d8:4a:03:a6:2c:b7:f7:5f:fc:5b:08:
                    d9:78:ae:0d:73:42:a5:68:cb:5d:1e:94:36:02:60:
                    04:60:91:fc:75:2c:f1:35:ae:61:6f:2e:3b:47:cd:
                    ff:0c:2b:18:21:a1:ce:f2:f5:33:7a:b4:d7:0e:19:
                    88:66:3d
                Exponent: 65537 (0x10001)
        X509v3 extensions:
            X509v3 Basic Constraints: critical
                CA:FALSE
            X509v3 Key Usage: critical
                Digital Signature, Key Agreement
            X509v3 Extended Key Usage: critical
                TLS Web Client Authentication
            X509v3 Subject Key Identifier: 
                D9:13:37:FE:DE:34:0A:96:38:92:9B:6E:E7:17:DB:CC:86:40:0C:4B
            X509v3 Authority Key Identifier: 
                keyid:72:BE:FA:99:A5:A8:A2:0C:BE:2C:0B:E9:B5:57:E4:1A:41:CA:F3:23

            TLS Feature: 
                status_request_v2
    Signature Algorithm: sha512WithRSAEncryption
         5f:9e:1c:6c:10:21:ef:dc:e1:f3:72:1b:31:9c:67:da:38:ea:
         29:44:db:f1:ac:27:54:5f:b6:3a:8e:02:f8:6f:fc:8b:f4:5e:
         ee:e3:e7:db:5b:81:91:52:f1:93:d6:2a:b7:5f:9c:9c:5e:01:
         72:0f:28:ad:86:ad:c2:3c:88:31:9b:6a:21:11:dd:b4:83:a0:
         5f:90:75:e7:79:49:f3:1a:68:c5:bc:9d:a2:57:02:1a:bd:11:
         6a:c8:c0:80:c5:04:2f:bf:72:b6:66:ad:ec:ee:fc:f5:9f:1c:
         ed:2a:73:ac:bd:fb:e8:24:db:6d:54:af:3a:0e:8e:ef:04:7e:
         46:9a:18:32:46:6b:7f:1c:83:d3:65:cc:96:c6:d6:4f:28:bb:
         a3:8c:fc:ec:62:74:11:95:99:59:15:71:d8:fa:85:f6:24:71:
         c1:03:6a:58:71:7f:44:fe:eb:d0:5e:ab:f7:5e:85:cd:f0:86:
         ae:a6:f8:a6:51:10:7a:f3:19:e9:05:50:91:a2:df:65:c4:10:
         7c:7f:23:c9:9e:76:d7:fc:fc:5a:3e:b2:66:f9:96:37:8b:d0:
         09:25:1b:3e:3e:37:2b:aa:2c:36:73:b6:33:e6:5e:70:4d:8a:
         84:4b:14:f2:bc:c9:a7:7a:0b:63:3e:b9:87:08:23:6a:4f:0f:
         59:30:2c:98:0b:28:bc:33:53:28:70:9c:3a:b8:f0:37:e6:59:
         81:82:54:b3:2b:94:e2:e3:f8:00:2d:42:49:3c:af:98:1e:de:
         a7:43:5f:6d:78:f9:9f:0b:46:6e:5e:98:ad:19:fa:26:98:27:
         32:3e:6d:10:be:57:48:6c:7c:76:b3:29:3a:47:fa:c4:b9:d9:
         71:34:03:71:f3:91:fa:c5:24:07:3c:52:1e:28:e0:12:dc:f2:
         77:36:c0:2c:17:21:fe:9b:d9:cf:6a:db:79:5f:24:84:14:4a:
         01:5b:75:3d:b2:6c:c1:6a:f0:1e:83:a4:77:a5:84:c8:c8:ed:
         50:11:c6:87:8a:61:46:b8:9c:f4:34:1b:28:92:47:9d:86:90:
         d6:09:67:68:0c:cb:60:aa:86:1e:6a:c0:ef:89:45:97:39:00:
         c4:63:d7:fe:37:fb:ea:d2:dc:a3:14:7a:55:1c:7d:f7:89:ea:
         cc:e5:bf:c5:78:c6:46:c2:2d:fa:11:17:b3:55:82:30:96:69:
         a9:8c:fa:15:0c:00:d6:02:4c:c6:41:49:0d:27:64:4c:40:1a:
         6e:29:81:b6:7b:5b:9d:28:fb:f7:f8:8b:df:c7:50:e0:65:46:
         6b:29:9a:3a:d6:ac:7c:93:59:ec:37:e4:38:f9:42:25:e7:51:
         29:73:ba:ec:24:b2:74:97
-----BEGIN CERTIFICATE-----
MIIF9TCCA92gAwIBAgICJZcwDQYJKoZIhvcNAQENBQAwdjELMAkGA1UEBhMCVVMx
EzARBgNVBAgMCkNhbGlmb3JuaWExDjAMBgNVBAoMBWRyZmN4MQwwCgYDVQQLDAN2
cG4xFjAUBgNVBAMMDXZwbi5kcmZjeC5jb20xHDAaBgkqhkiG9w0BCQEWDXZwbkBk
cmZjeC5jb20wHhcNMTcwODA5MDgzMzM1WhcNMTgwOTEzMDgzMzM1WjB2MQswCQYD
VQQGEwJVUzETMBEGA1UECAwKQ2FsaWZvcm5pYTEOMAwGA1UECgwFZHJmY3gxDDAK
BgNVBAsMA3ZwbjEWMBQGA1UEAwwNdnBuLmRyZmN4LmNvbTEcMBoGCSqGSIb3DQEJ
ARYNdnBuQGRyZmN4LmNvbTCCAiIwDQYJKoZIhvcNAQEBBQADggIPADCCAgoCggIB
AMeqWqqmmMuO89EiMTdnHizT2ADokEzwlBcyFEAGj8xGafx/mtLDJUsQntiJq1w1
JH/jEsqjhh/cfAZ518wlS6IzJjz7lAIFYxI6UQBBRNMJCagA9me0ZW7CvByseGH7
635c3TdrZRW+lwD7S4a6bJ6MmgNpHEXr/T23WVd78lKRJgyHsbU2XQLsPLSWVXAh
7LDfz2ib8w9+Gr+pLpddlF4teLjZIUTBCYEtEDK1is+yRattoawOfXKT83fL4VCL
00NdbvK+oImDt5cJ90tPp1OfDZ0vIK4yaU+NkSHJOQu3iR0WcXVWWKBBETHZ+Z35
fReR8K1UbtU7Hn1aVz2Hp3nQtT4OBaqdVKy/oYQEfhL99Vv5bD5qyc48TzUJM1NF
xbLYcA9M2G6Nw98YBAOxG5mc2TTYDzIE6q2cAejnEeQk/iJn7abv4XTOe8eizaF2
vDOZNYcYYWP7lpjLiqg5hRIX27OGWmHw3HwlqEODTXZ2olS2D5N1GQA1QbH/B94F
6e3pWaMypu471ONw3htmQA23MC+wgaxugQ6HIlo1ioWbA9vKkK/MrG1YaLszP1vB
RhGef1PGar5upcddcVTRAZHLnUcTKthKA6Yst/df/FsI2XiuDXNCpWjLXR6UNgJg
BGCR/HUs8TWuYW8uO0fN/wwrGCGhzvL1M3q01w4ZiGY9AgMBAAGjgYwwgYkwDAYD
VR0TAQH/BAIwADAOBgNVHQ8BAf8EBAMCA4gwFgYDVR0lAQH/BAwwCgYIKwYBBQUH
AwIwHQYDVR0OBBYEFNkTN/7eNAqWOJKbbucX28yGQAxLMB8GA1UdIwQYMBaAFHK+
+pmlqKIMviwL6bVX5BpByvMjMBEGCCsGAQUFBwEYBAUwAwIBETANBgkqhkiG9w0B
AQ0FAAOCAgEAX54cbBAh79zh83IbMZxn2jjqKUTb8awnVF+2Oo4C+G/8i/Re7uPn
21uBkVLxk9Yqt1+cnF4Bcg8orYatwjyIMZtqIRHdtIOgX5B153lJ8xpoxbydolcC
Gr0RasjAgMUEL79ytmat7O789Z8c7SpzrL376CTbbVSvOg6O7wR+RpoYMkZrfxyD
02XMlsbWTyi7o4z87GJ0EZWZWRVx2PqF9iRxwQNqWHF/RP7r0F6r916FzfCGrqb4
plEQevMZ6QVQkaLfZcQQfH8jyZ521/z8Wj6yZvmWN4vQCSUbPj43K6osNnO2M+Ze
cE2KhEsU8rzJp3oLYz65hwgjak8PWTAsmAsovDNTKHCcOrjwN+ZZgYJUsyuU4uP4
AC1CSTyvmB7ep0NfbXj5nwtGbl6YrRn6JpgnMj5tEL5XSGx8drMpOkf6xLnZcTQD
cfOR+sUkBzxSHijgEtzydzbALBch/pvZz2rbeV8khBRKAVt1PbJswWrwHoOkd6WE
yMjtUBHGh4phRric9DQbKJJHnYaQ1glnaAzLYKqGHmrA74lFlzkAxGPX/jf76tLc
oxR6VRx994nqzOW/xXjGRsIt+hEXs1WCMJZpqYz6FQwA1gJMxkFJDSdkTEAabimB
tntbnSj79/iL38dQ4GVGaymaOtasfJNZ7DfkOPlCJedRKXO67CSydJc=
-----END CERTIFICATE-----
