Certificate:
    Data:
        Version: 3 (0x2)
        Serial Number: 9617 (0x2591)
    Signature Algorithm: sha512WithRSAEncryption
        Issuer: C=US, ST=California, O=drfcx, OU=vpn, CN=vpn.drfcx.com/emailAddress=vpn@drfcx.com
        Validity
            Not Before: Jul 17 23:12:48 2017 GMT
            Not After : Aug 21 23:12:48 2018 GMT
        Subject: C=US, ST=California, O=drfcx, OU=vpn, CN=rocket/emailAddress=mark@drfcx.com
        Subject Public Key Info:
            Public Key Algorithm: rsaEncryption
                Public-Key: (4096 bit)
                Modulus:
                    00:f1:6d:4c:aa:f5:c8:4f:9a:ad:22:bb:26:21:f9:
                    ca:38:b7:50:99:eb:55:13:eb:56:55:8f:8c:09:0c:
                    30:89:8e:b8:f2:13:f3:f9:36:b6:e5:ce:97:b6:46:
                    b6:84:78:9d:75:0c:2d:27:13:1e:76:7e:6c:0b:51:
                    b0:06:9f:7a:e6:b0:f5:c7:fd:ac:6e:7c:46:d8:6d:
                    ed:be:f7:44:f2:7f:a4:01:5f:dd:e9:9d:03:ca:15:
                    3d:fb:50:8f:de:d5:b8:fd:cd:3c:98:36:0f:0e:17:
                    83:ff:57:64:7f:54:c5:93:b1:41:70:38:33:51:44:
                    6d:df:41:39:72:3a:0d:ad:5c:51:2c:30:6c:f3:58:
                    34:a7:2a:a7:82:20:47:f7:ad:83:00:25:e1:60:60:
                    61:36:68:c8:e4:5b:86:03:8e:ac:56:6a:31:6a:fc:
                    05:d7:6a:0d:96:c7:5d:62:1c:3f:28:2c:42:2b:65:
                    31:fa:b4:33:3c:ac:49:96:ca:dc:39:a0:9c:91:d0:
                    3e:4d:fe:3c:3a:b9:e4:3f:42:d8:4f:94:2c:93:39:
                    54:a9:ec:49:b8:32:c3:9b:1d:8d:f7:db:88:42:90:
                    6c:96:fd:77:44:04:cc:a5:56:33:17:05:c2:04:a0:
                    7b:03:61:4f:13:46:b3:b8:03:d7:df:0a:35:da:e2:
                    bd:df:31:52:b2:22:8c:a1:50:88:8a:6c:ac:32:16:
                    d5:35:ac:49:1b:89:71:cb:55:99:12:21:b1:85:92:
                    9d:fa:df:6b:38:9b:48:ac:09:c3:c2:db:9f:ae:bd:
                    c4:39:a4:3e:e4:8e:2a:96:e6:54:73:ec:55:5b:4b:
                    ac:29:b5:70:49:6a:8f:26:7c:49:f0:64:2d:ec:1c:
                    79:d7:04:65:68:66:4c:f5:f9:91:85:ba:b5:b3:b8:
                    fb:4f:70:26:db:4d:29:8f:09:26:85:24:53:78:0a:
                    4b:44:bd:a3:ad:6b:b9:f1:36:4c:6d:1e:4c:1d:14:
                    7d:99:18:3f:9f:a1:94:53:25:c3:99:17:d2:5b:d6:
                    df:3c:9f:b4:30:fa:34:81:26:a3:a8:3f:44:24:61:
                    10:ae:d7:69:38:33:17:4b:5e:77:65:e2:49:fa:35:
                    93:0d:8e:02:a3:4f:a1:36:ed:b8:bb:01:b0:15:e1:
                    f0:0a:8b:89:5f:38:1b:d4:40:8a:9b:73:f1:c3:71:
                    01:0f:03:b5:74:c2:99:5b:51:95:69:53:ba:d0:77:
                    0c:4c:4b:bf:75:b5:72:5b:d3:56:67:83:2d:bc:33:
                    8a:04:9c:ff:c9:99:ce:39:01:8a:ff:dd:75:c0:13:
                    91:3b:ff:c4:60:00:1d:32:89:42:0e:1c:80:c8:37:
                    0d:1f:1d
                Exponent: 65537 (0x10001)
        X509v3 extensions:
            X509v3 Basic Constraints: critical
                CA:FALSE
            X509v3 Key Usage: critical
                Digital Signature, Key Agreement
            X509v3 Extended Key Usage: critical
                TLS Web Client Authentication
            X509v3 Subject Key Identifier: 
                2E:43:7C:18:6D:D3:7C:D9:C9:45:D9:64:F0:28:A1:8C:15:A1:7C:32
            X509v3 Authority Key Identifier: 
                keyid:72:BE:FA:99:A5:A8:A2:0C:BE:2C:0B:E9:B5:57:E4:1A:41:CA:F3:23

            TLS Feature: 
                status_request_v2
    Signature Algorithm: sha512WithRSAEncryption
         9f:08:a6:06:9a:80:15:f3:dc:c5:1d:62:7a:07:d1:f1:54:63:
         87:82:36:aa:a3:04:ab:64:35:a6:b2:79:cd:e6:ff:64:3d:e5:
         08:8a:85:5b:77:94:50:ed:63:8b:79:dc:20:29:89:01:54:ce:
         f5:64:a4:b6:15:a6:89:3d:6c:b5:f0:53:89:24:2b:fa:91:44:
         10:ac:13:04:b8:ea:b3:96:39:6d:35:6d:57:43:89:f5:a9:d3:
         d1:23:88:93:f0:c4:f2:fd:8c:34:b7:f5:a8:9a:87:49:83:a8:
         ea:ca:64:60:8e:6f:b6:53:c5:69:69:70:86:3e:25:e1:2d:ed:
         d7:39:79:a6:81:f9:79:38:d8:81:2d:96:85:13:9e:e2:2e:3d:
         aa:5b:bb:4d:92:9f:0d:f9:25:00:65:48:50:f5:9d:6d:4d:62:
         28:9d:c6:c7:ef:73:a4:52:fc:26:88:c2:94:67:f6:af:42:b0:
         ee:b5:69:95:4a:6d:e8:87:c9:71:57:67:8c:7a:cd:0c:60:69:
         a8:c0:c1:e9:31:b0:c7:24:ee:e3:9c:d0:ab:c2:2e:89:46:d9:
         e0:2a:b6:5b:0a:5b:d3:fe:22:ca:3d:56:3d:47:0d:2d:41:c5:
         c1:ca:4a:7b:76:0d:e7:65:89:13:15:72:55:8f:d6:4c:43:54:
         9b:74:c7:f8:93:f0:55:0b:ce:20:64:b2:f8:4a:3e:ec:84:63:
         92:a1:fa:34:80:0d:fb:89:a1:cb:b8:99:91:cd:55:19:6b:48:
         d3:55:9f:f1:60:23:9b:e3:0a:d0:9b:fe:4d:cf:50:88:5a:48:
         1a:0a:5e:96:fb:9f:d0:45:11:3e:e7:0d:86:de:cd:a4:d2:ce:
         22:4e:5b:dd:1e:ac:00:2a:73:98:cb:0d:75:25:3c:46:71:d2:
         b5:9d:3b:b8:1d:4c:d6:f8:48:e1:3a:98:41:ef:56:e9:dc:1b:
         db:a2:c3:f6:fb:47:af:a1:fa:8d:60:c5:7e:fd:14:c6:06:d3:
         a8:fc:e2:58:29:51:8d:01:f2:d9:05:a7:01:4d:6a:3f:8c:87:
         dc:c8:b9:fc:e4:eb:23:f6:5a:9d:10:f9:ba:f2:93:7c:09:b4:
         37:73:dd:a6:8b:d2:a0:99:bf:75:a4:0d:2a:89:2e:a7:07:62:
         12:48:04:f3:d5:67:ff:dc:a5:23:6b:ba:12:68:16:8e:45:e4:
         5f:70:6b:d1:61:3d:63:cf:fd:26:7c:18:19:5c:c1:69:eb:85:
         0a:55:0d:f8:fd:91:8d:f2:d9:8c:53:48:1e:de:b2:1e:ca:70:
         24:f8:0e:8f:13:ad:b7:02:f3:92:76:21:2c:98:07:8c:82:40:
         88:8d:18:d1:dc:0e:76:e6
-----BEGIN CERTIFICATE-----
MIIF7zCCA9egAwIBAgICJZEwDQYJKoZIhvcNAQENBQAwdjELMAkGA1UEBhMCVVMx
EzARBgNVBAgMCkNhbGlmb3JuaWExDjAMBgNVBAoMBWRyZmN4MQwwCgYDVQQLDAN2
cG4xFjAUBgNVBAMMDXZwbi5kcmZjeC5jb20xHDAaBgkqhkiG9w0BCQEWDXZwbkBk
cmZjeC5jb20wHhcNMTcwNzE3MjMxMjQ4WhcNMTgwODIxMjMxMjQ4WjBwMQswCQYD
VQQGEwJVUzETMBEGA1UECAwKQ2FsaWZvcm5pYTEOMAwGA1UECgwFZHJmY3gxDDAK
BgNVBAsMA3ZwbjEPMA0GA1UEAwwGcm9ja2V0MR0wGwYJKoZIhvcNAQkBFg5tYXJr
QGRyZmN4LmNvbTCCAiIwDQYJKoZIhvcNAQEBBQADggIPADCCAgoCggIBAPFtTKr1
yE+arSK7JiH5yji3UJnrVRPrVlWPjAkMMImOuPIT8/k2tuXOl7ZGtoR4nXUMLScT
HnZ+bAtRsAafeuaw9cf9rG58Rtht7b73RPJ/pAFf3emdA8oVPftQj97VuP3NPJg2
Dw4Xg/9XZH9UxZOxQXA4M1FEbd9BOXI6Da1cUSwwbPNYNKcqp4IgR/etgwAl4WBg
YTZoyORbhgOOrFZqMWr8BddqDZbHXWIcPygsQitlMfq0MzysSZbK3DmgnJHQPk3+
PDq55D9C2E+ULJM5VKnsSbgyw5sdjffbiEKQbJb9d0QEzKVWMxcFwgSgewNhTxNG
s7gD198KNdrivd8xUrIijKFQiIpsrDIW1TWsSRuJcctVmRIhsYWSnfrfazibSKwJ
w8Lbn669xDmkPuSOKpbmVHPsVVtLrCm1cElqjyZ8SfBkLewcedcEZWhmTPX5kYW6
tbO4+09wJttNKY8JJoUkU3gKS0S9o61rufE2TG0eTB0UfZkYP5+hlFMlw5kX0lvW
3zyftDD6NIEmo6g/RCRhEK7XaTgzF0ted2XiSfo1kw2OAqNPoTbtuLsBsBXh8AqL
iV84G9RAiptz8cNxAQ8DtXTCmVtRlWlTutB3DExLv3W1clvTVmeDLbwzigSc/8mZ
zjkBiv/ddcATkTv/xGAAHTKJQg4cgMg3DR8dAgMBAAGjgYwwgYkwDAYDVR0TAQH/
BAIwADAOBgNVHQ8BAf8EBAMCA4gwFgYDVR0lAQH/BAwwCgYIKwYBBQUHAwIwHQYD
VR0OBBYEFC5DfBht03zZyUXZZPAooYwVoXwyMB8GA1UdIwQYMBaAFHK++pmlqKIM
viwL6bVX5BpByvMjMBEGCCsGAQUFBwEYBAUwAwIBETANBgkqhkiG9w0BAQ0FAAOC
AgEAnwimBpqAFfPcxR1iegfR8VRjh4I2qqMEq2Q1prJ5zeb/ZD3lCIqFW3eUUO1j
i3ncICmJAVTO9WSkthWmiT1stfBTiSQr+pFEEKwTBLjqs5Y5bTVtV0OJ9anT0SOI
k/DE8v2MNLf1qJqHSYOo6spkYI5vtlPFaWlwhj4l4S3t1zl5poH5eTjYgS2WhROe
4i49qlu7TZKfDfklAGVIUPWdbU1iKJ3Gx+9zpFL8JojClGf2r0Kw7rVplUpt6IfJ
cVdnjHrNDGBpqMDB6TGwxyTu45zQq8IuiUbZ4Cq2Wwpb0/4iyj1WPUcNLUHFwcpK
e3YN52WJExVyVY/WTENUm3TH+JPwVQvOIGSy+Eo+7IRjkqH6NIAN+4mhy7iZkc1V
GWtI01Wf8WAjm+MK0Jv+Tc9QiFpIGgpelvuf0EURPucNht7NpNLOIk5b3R6sACpz
mMsNdSU8RnHStZ07uB1M1vhI4TqYQe9W6dwb26LD9vtHr6H6jWDFfv0UxgbTqPzi
WClRjQHy2QWnAU1qP4yH3Mi5/OTrI/ZanRD5uvKTfAm0N3PdpovSoJm/daQNKoku
pwdiEkgE89Vn/9ylI2u6EmgWjkXkX3Br0WE9Y8/9JnwYGVzBaeuFClUN+P2RjfLZ
jFNIHt6yHspwJPgOjxOttwLzknYhLJgHjIJAiI0Y0dwOduY=
-----END CERTIFICATE-----
